; Function Attrs: mustprogress uwtable
define internal fastcc void @_ZSt11make_uniqueIN12_GLOBAL__N_116GitRegistryEntryEJRN5vcpkg10StringViewERKNS0_11GitRegistryEbSt6vectorINS2_17GitVersionDbEntryESaIS9_EEEENSt8__detail9_MakeUniqIT_E15__single_objectEDpOT0_(ptr dead_on_unwind noalias nocapture writable writeonly align 8 %0, ptr %.0.val, i64 %.8.val, ptr noundef nonnull align 8 dereferenceable(176) %1, i8 %.0.val1, ptr nocapture noundef nonnull align 8 dereferenceable(24) %2) unnamed_addr #2 personality ptr @__gxx_personality_v0 {
  %4 = tail call noalias noundef nonnull dereferenceable(104) ptr @_Znwm(i64 noundef 104) #30
  %5 = and i8 %.0.val1, 1
  %6 = icmp ne i8 %5, 0
  invoke fastcc void @_ZN12_GLOBAL__N_116GitRegistryEntryC2EN5vcpkg10StringViewERKNS_11GitRegistryEbOSt6vectorINS1_17GitVersionDbEntryESaIS7_EE(ptr noundef nonnull align 8 dereferenceable(104) %4, ptr %.0.val, i64 %.8.val, ptr noundef nonnull align 8 dereferenceable(176) %1, i1 noundef zeroext %6, ptr noundef nonnull align 8 dereferenceable(24) %2)
          to label %7 unwind label %8

7:                                                ; preds = %3
  store ptr %4, ptr %0, align 8
  ret void

8:                                                ; preds = %3
  %9 = landingpad { ptr, i32 }
          cleanup
  tail call void @_ZdlPv(ptr noundef nonnull %4) #28
  resume { ptr, i32 } %9
}